target datalayout = "e-m:e-p270:32:32-p271:32:32-p272:64:64-i64:64-i128:128-f80:128-n8:16:32:64-S128"
target triple = "x86_64-pc-linux-gnu"

%struct.wtap_rec = type { i32, i32, i32, %struct.nstime_t, i32, %struct.nstime_t, i8, %union.anon, ptr, i8, %struct.Buffer, %struct.Buffer }
%struct.nstime_t = type { i64, i32 }
%union.anon = type { %struct.wtap_packet_header }
%struct.wtap_packet_header = type { i32, i32, i32, i32, %union.wtap_pseudo_header }
%union.wtap_pseudo_header = type { %struct.erf_mc_phdr }
%struct.erf_mc_phdr = type { %struct.erf_phdr, [16 x %struct.erf_ehdr], %union.anon.1 }
%struct.erf_phdr = type { i64, i8, i8, i16, i16, i16 }
%struct.erf_ehdr = type { i64 }
%union.anon.1 = type { i32 }
%struct.Buffer = type { ptr, i64, i64, i64 }
%struct.netxrayrec_2_x_hdr = type { i32, i32, i16, i16, [28 x i8] }
%struct.ieee_802_11_phdr = type { i32, i8, i32, %union.ieee_802_11_phy_info, i16, i16, i32, i16, i8, i8, i8, i8, i8, i8, i64, i32, i32, i8 }
%union.ieee_802_11_phy_info = type { %struct.ieee_802_11be }
%struct.ieee_802_11be = type { i8, i8, i8, i8, [4 x %struct.ieee_802_11be_user_info] }
%struct.ieee_802_11be_user_info = type { i32 }
%struct.dte_dce_phdr = type { i8 }
%struct.p2p_phdr = type { i8 }
%struct.wtap_dumper = type { ptr, i32, i32, i32, i32, i8, i64, ptr, ptr, ptr, ptr, ptr, ptr, ptr, ptr, ptr, ptr, ptr, ptr, ptr, i32, i32, i32 }
%struct.netxray_dump_t = type { i8, i32, i32 }

; Function Attrs: alwaysinline nounwind
define internal ptr @memset.inline(ptr %0, i32 %1, i64 %2) #9 {
  %4 = alloca ptr, align 8
  %5 = alloca i32, align 4
  %6 = alloca i64, align 8
  store ptr %0, ptr %4, align 8
  store i32 %1, ptr %5, align 4
  store i64 %2, ptr %6, align 8
  %7 = load ptr, ptr %4, align 8
  %8 = load i32, ptr %5, align 4
  %9 = load i64, ptr %6, align 8
  %10 = load ptr, ptr %4, align 8
  %11 = call i64 @llvm.objectsize.i64.p0(ptr %10, i1 false, i1 true, i1 true)
  %12 = call ptr @__memset_chk(ptr noundef %7, i32 noundef %8, i64 noundef %9, i64 noundef %11) #12
  ret ptr %12
}

; Function Attrs: null_pointer_is_valid sspstrong uwtable
define internal zeroext i1 @netxray_dump_2_0(ptr noundef %0, ptr noundef %1, ptr noundef %2, ptr noundef %3, ptr noundef %4) #0 {
  %6 = alloca i1, align 1
  %7 = alloca ptr, align 8
  %8 = alloca ptr, align 8
  %9 = alloca ptr, align 8
  %10 = alloca ptr, align 8
  %11 = alloca ptr, align 8
  %12 = alloca ptr, align 8
  %13 = alloca ptr, align 8
  %14 = alloca i64, align 8
  %15 = alloca i32, align 4
  %16 = alloca %struct.netxrayrec_2_x_hdr, align 4
  %17 = alloca i32, align 4
  store ptr %0, ptr %7, align 8
  store ptr %1, ptr %8, align 8
  store ptr %2, ptr %9, align 8
  store ptr %3, ptr %10, align 8
  store ptr %4, ptr %11, align 8
  call void @llvm.lifetime.start.p0(i64 8, ptr %12) #12
  %18 = load ptr, ptr %8, align 8
  %19 = getelementptr inbounds nuw %struct.wtap_rec, ptr %18, i32 0, i32 7
  %20 = getelementptr inbounds nuw %struct.wtap_packet_header, ptr %19, i32 0, i32 4
  store ptr %20, ptr %12, align 8
  call void @llvm.lifetime.start.p0(i64 8, ptr %13) #12
  %21 = load ptr, ptr %7, align 8
  %22 = getelementptr inbounds nuw %struct.wtap_dumper, ptr %21, i32 0, i32 7
  %23 = load ptr, ptr %22, align 8
  store ptr %23, ptr %13, align 8
  call void @llvm.lifetime.start.p0(i64 8, ptr %14) #12
  call void @llvm.lifetime.start.p0(i64 4, ptr %15) #12
  call void @llvm.lifetime.start.p0(i64 40, ptr %16) #12
  %24 = load ptr, ptr %8, align 8
  %25 = getelementptr inbounds nuw %struct.wtap_rec, ptr %24, i32 0, i32 0
  %26 = load i32, ptr %25, align 8
  %27 = icmp ne i32 %26, 0
  br i1 %27, label %28, label %30

28:                                               ; preds = %5
  %29 = load ptr, ptr %10, align 8
  store i32 -24, ptr %29, align 4
  store i1 false, ptr %6, align 1
  store i32 1, ptr %17, align 4
  br label %245

30:                                               ; preds = %5
  %31 = load ptr, ptr %7, align 8
  %32 = getelementptr inbounds nuw %struct.wtap_dumper, ptr %31, i32 0, i32 3
  %33 = load i32, ptr %32, align 8
  %34 = load ptr, ptr %8, align 8
  %35 = getelementptr inbounds nuw %struct.wtap_rec, ptr %34, i32 0, i32 7
  %36 = getelementptr inbounds nuw %struct.wtap_packet_header, ptr %35, i32 0, i32 2
  %37 = load i32, ptr %36, align 8
  %38 = icmp ne i32 %33, %37
  br i1 %38, label %39, label %41

39:                                               ; preds = %30
  %40 = load ptr, ptr %10, align 8
  store i32 -9, ptr %40, align 4
  store i1 false, ptr %6, align 1
  store i32 1, ptr %17, align 4
  br label %245

41:                                               ; preds = %30
  %42 = load ptr, ptr %8, align 8
  %43 = getelementptr inbounds nuw %struct.wtap_rec, ptr %42, i32 0, i32 7
  %44 = getelementptr inbounds nuw %struct.wtap_packet_header, ptr %43, i32 0, i32 0
  %45 = load i32, ptr %44, align 8
  %46 = icmp ugt i32 %45, 262144
  br i1 %46, label %47, label %49

47:                                               ; preds = %41
  %48 = load ptr, ptr %10, align 8
  store i32 -22, ptr %48, align 4
  store i1 false, ptr %6, align 1
  store i32 1, ptr %17, align 4
  br label %245

49:                                               ; preds = %41
  %50 = load ptr, ptr %13, align 8
  %51 = getelementptr inbounds nuw %struct.netxray_dump_t, ptr %50, i32 0, i32 0
  %52 = load i8, ptr %51, align 4, !range !6, !noundef !7
  %53 = trunc i8 %52 to i1
  br i1 %53, label %54, label %78

54:                                               ; preds = %49
  %55 = load ptr, ptr %13, align 8
  %56 = getelementptr inbounds nuw %struct.netxray_dump_t, ptr %55, i32 0, i32 0
  store i8 0, ptr %56, align 4
  %57 = load ptr, ptr %8, align 8
  %58 = getelementptr inbounds nuw %struct.wtap_rec, ptr %57, i32 0, i32 3
  %59 = getelementptr inbounds nuw %struct.nstime_t, ptr %58, i32 0, i32 0
  %60 = load i64, ptr %59, align 8
  %61 = icmp slt i64 %60, 0
  br i1 %61, label %68, label %62

62:                                               ; preds = %54
  %63 = load ptr, ptr %8, align 8
  %64 = getelementptr inbounds nuw %struct.wtap_rec, ptr %63, i32 0, i32 3
  %65 = getelementptr inbounds nuw %struct.nstime_t, ptr %64, i32 0, i32 0
  %66 = load i64, ptr %65, align 8
  %67 = icmp sgt i64 %66, 4294967295
  br i1 %67, label %68, label %70

68:                                               ; preds = %62, %54
  %69 = load ptr, ptr %10, align 8
  store i32 -27, ptr %69, align 4
  store i1 false, ptr %6, align 1
  store i32 1, ptr %17, align 4
  br label %245

70:                                               ; preds = %62
  %71 = load ptr, ptr %8, align 8
  %72 = getelementptr inbounds nuw %struct.wtap_rec, ptr %71, i32 0, i32 3
  %73 = getelementptr inbounds nuw %struct.nstime_t, ptr %72, i32 0, i32 0
  %74 = load i64, ptr %73, align 8
  %75 = trunc i64 %74 to i32
  %76 = load ptr, ptr %13, align 8
  %77 = getelementptr inbounds nuw %struct.netxray_dump_t, ptr %76, i32 0, i32 1
  store i32 %75, ptr %77, align 4
  br label %78

78:                                               ; preds = %70, %49
  %79 = call ptr @memset.inline(ptr noundef %16, i32 noundef 0, i64 noundef 40) #12
  %80 = load ptr, ptr %8, align 8
  %81 = getelementptr inbounds nuw %struct.wtap_rec, ptr %80, i32 0, i32 3
  %82 = getelementptr inbounds nuw %struct.nstime_t, ptr %81, i32 0, i32 0
  %83 = load i64, ptr %82, align 8
  %84 = load ptr, ptr %13, align 8
  %85 = getelementptr inbounds nuw %struct.netxray_dump_t, ptr %84, i32 0, i32 1
  %86 = load i32, ptr %85, align 4
  %87 = zext i32 %86 to i64
  %88 = sub i64 %83, %87
  %89 = mul i64 %88, 1000000
  %90 = load ptr, ptr %8, align 8
  %91 = getelementptr inbounds nuw %struct.wtap_rec, ptr %90, i32 0, i32 3
  %92 = getelementptr inbounds nuw %struct.nstime_t, ptr %91, i32 0, i32 1
  %93 = load i32, ptr %92, align 8
  %94 = sext i32 %93 to i64
  %95 = udiv i64 %94, 1000
  %96 = add i64 %89, %95
  store i64 %96, ptr %14, align 8
  %97 = load i64, ptr %14, align 8
  %98 = urem i64 %97, 4294967296
  %99 = trunc i64 %98 to i32
  store i32 %99, ptr %15, align 4
  %100 = load i32, ptr %15, align 4
  %101 = getelementptr inbounds nuw %struct.netxrayrec_2_x_hdr, ptr %16, i32 0, i32 0
  store i32 %100, ptr %101, align 4
  %102 = load i64, ptr %14, align 8
  %103 = udiv i64 %102, 4294967296
  %104 = trunc i64 %103 to i32
  store i32 %104, ptr %15, align 4
  %105 = load i32, ptr %15, align 4
  %106 = getelementptr inbounds nuw %struct.netxrayrec_2_x_hdr, ptr %16, i32 0, i32 1
  store i32 %105, ptr %106, align 4
  %107 = load ptr, ptr %8, align 8
  %108 = getelementptr inbounds nuw %struct.wtap_rec, ptr %107, i32 0, i32 7
  %109 = getelementptr inbounds nuw %struct.wtap_packet_header, ptr %108, i32 0, i32 1
  %110 = load i32, ptr %109, align 4
  %111 = trunc i32 %110 to i16
  %112 = getelementptr inbounds nuw %struct.netxrayrec_2_x_hdr, ptr %16, i32 0, i32 2
  store i16 %111, ptr %112, align 4
  %113 = load ptr, ptr %8, align 8
  %114 = getelementptr inbounds nuw %struct.wtap_rec, ptr %113, i32 0, i32 7
  %115 = getelementptr inbounds nuw %struct.wtap_packet_header, ptr %114, i32 0, i32 0
  %116 = load i32, ptr %115, align 8
  %117 = trunc i32 %116 to i16
  %118 = getelementptr inbounds nuw %struct.netxrayrec_2_x_hdr, ptr %16, i32 0, i32 3
  store i16 %117, ptr %118, align 2
  %119 = load ptr, ptr %8, align 8
  %120 = getelementptr inbounds nuw %struct.wtap_rec, ptr %119, i32 0, i32 7
  %121 = getelementptr inbounds nuw %struct.wtap_packet_header, ptr %120, i32 0, i32 2
  %122 = load i32, ptr %121, align 8
  switch i32 %122, label %224 [
    i32 22, label %123
    i32 19, label %198
    i32 36, label %198
    i32 27, label %210
  ]

123:                                              ; preds = %78
  %124 = load ptr, ptr %12, align 8
  %125 = getelementptr inbounds nuw %struct.ieee_802_11_phdr, ptr %124, i32 0, i32 4
  %126 = load i16, ptr %125, align 8
  %127 = and i16 %126, 1
  %128 = zext i16 %127 to i32
  %129 = icmp ne i32 %128, 0
  br i1 %129, label %130, label %135

130:                                              ; preds = %123
  %131 = load ptr, ptr %12, align 8
  %132 = getelementptr inbounds nuw %struct.ieee_802_11_phdr, ptr %131, i32 0, i32 5
  %133 = load i16, ptr %132, align 2
  %134 = zext i16 %133 to i32
  br label %136

135:                                              ; preds = %123
  br label %136

136:                                              ; preds = %135, %130
  %137 = phi i32 [ %134, %130 ], [ 0, %135 ]
  %138 = trunc i32 %137 to i8
  %139 = getelementptr inbounds nuw %struct.netxrayrec_2_x_hdr, ptr %16, i32 0, i32 4
  %140 = getelementptr [28 x i8], ptr %139, i64 0, i64 12
  store i8 %138, ptr %140, align 4
  %141 = load ptr, ptr %12, align 8
  %142 = getelementptr inbounds nuw %struct.ieee_802_11_phdr, ptr %141, i32 0, i32 4
  %143 = load i16, ptr %142, align 8
  %144 = lshr i16 %143, 2
  %145 = and i16 %144, 1
  %146 = zext i16 %145 to i32
  %147 = icmp ne i32 %146, 0
  br i1 %147, label %148, label %154

148:                                              ; preds = %136
  %149 = load ptr, ptr %12, align 8
  %150 = getelementptr inbounds nuw %struct.ieee_802_11_phdr, ptr %149, i32 0, i32 7
  %151 = load i16, ptr %150, align 8
  %152 = trunc i16 %151 to i8
  %153 = zext i8 %152 to i32
  br label %155

154:                                              ; preds = %136
  br label %155

155:                                              ; preds = %154, %148
  %156 = phi i32 [ %153, %148 ], [ 0, %154 ]
  %157 = trunc i32 %156 to i8
  %158 = getelementptr inbounds nuw %struct.netxrayrec_2_x_hdr, ptr %16, i32 0, i32 4
  %159 = getelementptr [28 x i8], ptr %158, i64 0, i64 13
  store i8 %157, ptr %159, align 1
  %160 = load ptr, ptr %12, align 8
  %161 = getelementptr inbounds nuw %struct.ieee_802_11_phdr, ptr %160, i32 0, i32 4
  %162 = load i16, ptr %161, align 8
  %163 = lshr i16 %162, 3
  %164 = and i16 %163, 1
  %165 = zext i16 %164 to i32
  %166 = icmp ne i32 %165, 0
  br i1 %166, label %167, label %172

167:                                              ; preds = %155
  %168 = load ptr, ptr %12, align 8
  %169 = getelementptr inbounds nuw %struct.ieee_802_11_phdr, ptr %168, i32 0, i32 8
  %170 = load i8, ptr %169, align 2
  %171 = zext i8 %170 to i32
  br label %173

172:                                              ; preds = %155
  br label %173

173:                                              ; preds = %172, %167
  %174 = phi i32 [ %171, %167 ], [ 0, %172 ]
  %175 = trunc i32 %174 to i8
  %176 = getelementptr inbounds nuw %struct.netxrayrec_2_x_hdr, ptr %16, i32 0, i32 4
  %177 = getelementptr [28 x i8], ptr %176, i64 0, i64 14
  store i8 %175, ptr %177, align 2
  %178 = load ptr, ptr %12, align 8
  %179 = getelementptr inbounds nuw %struct.ieee_802_11_phdr, ptr %178, i32 0, i32 4
  %180 = load i16, ptr %179, align 8
  %181 = lshr i16 %180, 4
  %182 = and i16 %181, 1
  %183 = zext i16 %182 to i32
  %184 = icmp ne i32 %183, 0
  br i1 %184, label %185, label %192

185:                                              ; preds = %173
  %186 = load ptr, ptr %12, align 8
  %187 = getelementptr inbounds nuw %struct.ieee_802_11_phdr, ptr %186, i32 0, i32 9
  %188 = load i8, ptr %187, align 1
  %189 = zext i8 %188 to i32
  %190 = mul i32 %189, 127
  %191 = sdiv i32 %190, 100
  br label %193

192:                                              ; preds = %173
  br label %193

193:                                              ; preds = %192, %185
  %194 = phi i32 [ %191, %185 ], [ 255, %192 ]
  %195 = trunc i32 %194 to i8
  %196 = getelementptr inbounds nuw %struct.netxrayrec_2_x_hdr, ptr %16, i32 0, i32 4
  %197 = getelementptr [28 x i8], ptr %196, i64 0, i64 15
  store i8 %195, ptr %197, align 1
  br label %224

198:                                              ; preds = %78, %78
  %199 = load ptr, ptr %12, align 8
  %200 = getelementptr inbounds nuw %struct.p2p_phdr, ptr %199, i32 0, i32 0
  %201 = load i8, ptr %200, align 8, !range !6, !noundef !7
  %202 = trunc i8 %201 to i1
  %203 = select i1 %202, i32 1, i32 0
  %204 = getelementptr inbounds nuw %struct.netxrayrec_2_x_hdr, ptr %16, i32 0, i32 4
  %205 = getelementptr [28 x i8], ptr %204, i64 0, i64 12
  %206 = load i8, ptr %205, align 4
  %207 = zext i8 %206 to i32
  %208 = or i32 %207, %203
  %209 = trunc i32 %208 to i8
  store i8 %209, ptr %205, align 4
  br label %224

210:                                              ; preds = %78
  %211 = load ptr, ptr %12, align 8
  %212 = getelementptr inbounds nuw %struct.dte_dce_phdr, ptr %211, i32 0, i32 0
  %213 = load i8, ptr %212, align 8
  %214 = zext i8 %213 to i32
  %215 = and i32 %214, 128
  %216 = icmp ne i32 %215, 0
  %217 = select i1 %216, i32 0, i32 1
  %218 = getelementptr inbounds nuw %struct.netxrayrec_2_x_hdr, ptr %16, i32 0, i32 4
  %219 = getelementptr [28 x i8], ptr %218, i64 0, i64 12
  %220 = load i8, ptr %219, align 4
  %221 = zext i8 %220 to i32
  %222 = or i32 %221, %217
  %223 = trunc i32 %222 to i8
  store i8 %223, ptr %219, align 4
  br label %224

224:                                              ; preds = %78, %210, %198, %193
  %225 = load ptr, ptr %7, align 8
  %226 = load ptr, ptr %10, align 8
  %227 = call zeroext i1 @wtap_dump_file_write(ptr noundef %225, ptr noundef %16, i64 noundef 40, ptr noundef %226)
  br i1 %227, label %229, label %228

228:                                              ; preds = %224
  store i1 false, ptr %6, align 1
  store i32 1, ptr %17, align 4
  br label %245

229:                                              ; preds = %224
  %230 = load ptr, ptr %7, align 8
  %231 = load ptr, ptr %9, align 8
  %232 = load ptr, ptr %8, align 8
  %233 = getelementptr inbounds nuw %struct.wtap_rec, ptr %232, i32 0, i32 7
  %234 = getelementptr inbounds nuw %struct.wtap_packet_header, ptr %233, i32 0, i32 0
  %235 = load i32, ptr %234, align 8
  %236 = zext i32 %235 to i64
  %237 = load ptr, ptr %10, align 8
  %238 = call zeroext i1 @wtap_dump_file_write(ptr noundef %230, ptr noundef %231, i64 noundef %236, ptr noundef %237)
  br i1 %238, label %240, label %239

239:                                              ; preds = %229
  store i1 false, ptr %6, align 1
  store i32 1, ptr %17, align 4
  br label %245

240:                                              ; preds = %229
  %241 = load ptr, ptr %13, align 8
  %242 = getelementptr inbounds nuw %struct.netxray_dump_t, ptr %241, i32 0, i32 2
  %243 = load i32, ptr %242, align 4
  %244 = add i32 %243, 1
  store i32 %244, ptr %242, align 4
  store i1 true, ptr %6, align 1
  store i32 1, ptr %17, align 4
  br label %245

245:                                              ; preds = %240, %239, %228, %68, %47, %39, %28
  call void @llvm.lifetime.end.p0(i64 40, ptr %16) #12
  call void @llvm.lifetime.end.p0(i64 4, ptr %15) #12
  call void @llvm.lifetime.end.p0(i64 8, ptr %14) #12
  call void @llvm.lifetime.end.p0(i64 8, ptr %13) #12
  call void @llvm.lifetime.end.p0(i64 8, ptr %12) #12
  %246 = load i1, ptr %6, align 1
  ret i1 %246
}