; Function Attrs: null_pointer_is_valid sspstrong uwtable
define internal noundef zeroext i1 @netxray_dump_2_0(ptr noundef %0, ptr noundef readonly captures(none) %1, ptr noundef %2, ptr noundef %3, ptr readnone captures(none) %4) #0 {
  %6 = alloca %struct.netxrayrec_2_x_hdr, align 4
  %7 = getelementptr inbounds nuw i8, ptr %1, i64 64
  %8 = getelementptr inbounds nuw i8, ptr %1, i64 80
  %9 = getelementptr inbounds nuw i8, ptr %0, i64 40
  %10 = load ptr, ptr %9, align 8
  call void @llvm.lifetime.start.p0(i64 40, ptr nonnull %6) #8
  %11 = load i32, ptr %1, align 8
  %.not = icmp eq i32 %11, 0
  br i1 %.not, label %13, label %12

12:                                               ; preds = %5
  store i32 -24, ptr %3, align 4
  br label %112

13:                                               ; preds = %5
  %14 = getelementptr inbounds nuw i8, ptr %0, i64 16
  %15 = load i32, ptr %14, align 8
  %16 = getelementptr inbounds nuw i8, ptr %1, i64 72
  %17 = load i32, ptr %16, align 8
  %.not44 = icmp eq i32 %15, %17
  br i1 %.not44, label %19, label %18

18:                                               ; preds = %13
  store i32 -9, ptr %3, align 4
  br label %112

19:                                               ; preds = %13
  %20 = load i32, ptr %7, align 8
  %21 = icmp ugt i32 %20, 262144
  br i1 %21, label %22, label %23

22:                                               ; preds = %19
  store i32 -22, ptr %3, align 4
  br label %112

23:                                               ; preds = %19
  %24 = load i8, ptr %10, align 4, !range !6, !noundef !7
  %25 = trunc nuw i8 %24 to i1
  br i1 %25, label %26, label %._crit_edge

._crit_edge:                                      ; preds = %23
  %.phi.trans.insert = getelementptr inbounds nuw i8, ptr %10, i64 4
  %.pre = load i32, ptr %.phi.trans.insert, align 4
  br label %33

26:                                               ; preds = %23
  store i8 0, ptr %10, align 4
  %27 = getelementptr inbounds nuw i8, ptr %1, i64 16
  %28 = load i64, ptr %27, align 8
  %or.cond = icmp ugt i64 %28, 4294967295
  br i1 %or.cond, label %29, label %30

29:                                               ; preds = %26
  store i32 -27, ptr %3, align 4
  br label %112

30:                                               ; preds = %26
  %31 = trunc nuw i64 %28 to i32
  %32 = getelementptr inbounds nuw i8, ptr %10, i64 4
  store i32 %31, ptr %32, align 4
  %.pre50 = load i32, ptr %7, align 8
  %.pre51 = load i32, ptr %16, align 8
  br label %33

33:                                               ; preds = %._crit_edge, %30
  %34 = phi i32 [ %15, %._crit_edge ], [ %.pre51, %30 ]
  %35 = phi i32 [ %20, %._crit_edge ], [ %.pre50, %30 ]
  %36 = phi i32 [ %.pre, %._crit_edge ], [ %31, %30 ]
  %37 = getelementptr inbounds nuw i8, ptr %6, i64 12
  call void @llvm.memset.p0.i64(ptr noundef nonnull align 4 dereferenceable(40) %37, i8 noundef 0, i64 noundef 28, i1 noundef false) #8
  %38 = getelementptr inbounds nuw i8, ptr %1, i64 16
  %39 = load i64, ptr %38, align 8
  %40 = zext i32 %36 to i64
  %41 = sub i64 %39, %40
  %42 = mul i64 %41, 1000000
  %43 = getelementptr inbounds nuw i8, ptr %1, i64 24
  %44 = load i32, ptr %43, align 8
  %45 = sext i32 %44 to i64
  %46 = udiv i64 %45, 1000
  %47 = add i64 %42, %46
  %48 = trunc i64 %47 to i32
  store i32 %48, ptr %6, align 4
  %49 = lshr i64 %47, 32
  %50 = trunc nuw i64 %49 to i32
  %51 = getelementptr inbounds nuw i8, ptr %6, i64 4
  store i32 %50, ptr %51, align 4
  %52 = getelementptr inbounds nuw i8, ptr %1, i64 68
  %53 = load i32, ptr %52, align 4
  %54 = trunc i32 %53 to i16
  %55 = getelementptr inbounds nuw i8, ptr %6, i64 8
  store i16 %54, ptr %55, align 4
  %56 = trunc i32 %35 to i16
  %57 = getelementptr inbounds nuw i8, ptr %6, i64 10
  store i16 %56, ptr %57, align 2
  switch i32 %34, label %102 [
    i32 22, label %58
    i32 19, label %95
    i32 36, label %95
    i32 27, label %98
  ]

58:                                               ; preds = %33
  %59 = getelementptr inbounds nuw i8, ptr %1, i64 112
  %60 = load i16, ptr %59, align 8
  %61 = and i16 %60, 1
  %.not46 = icmp eq i16 %61, 0
  br i1 %.not46, label %66, label %62

62:                                               ; preds = %58
  %63 = getelementptr inbounds nuw i8, ptr %1, i64 114
  %64 = load i16, ptr %63, align 2
  %65 = trunc i16 %64 to i8
  br label %66

66:                                               ; preds = %58, %62
  %67 = phi i8 [ %65, %62 ], [ 0, %58 ]
  %68 = getelementptr inbounds nuw i8, ptr %6, i64 24
  store i8 %67, ptr %68, align 4
  %69 = and i16 %60, 4
  %.not47 = icmp eq i16 %69, 0
  br i1 %.not47, label %74, label %70

70:                                               ; preds = %66
  %71 = getelementptr inbounds nuw i8, ptr %1, i64 120
  %72 = load i16, ptr %71, align 8
  %73 = trunc i16 %72 to i8
  br label %74

74:                                               ; preds = %66, %70
  %75 = phi i8 [ %73, %70 ], [ 0, %66 ]
  %76 = getelementptr inbounds nuw i8, ptr %6, i64 25
  store i8 %75, ptr %76, align 1
  %77 = and i16 %60, 8
  %.not48 = icmp eq i16 %77, 0
  br i1 %.not48, label %81, label %78

78:                                               ; preds = %74
  %79 = getelementptr inbounds nuw i8, ptr %1, i64 122
  %80 = load i8, ptr %79, align 2
  br label %81

81:                                               ; preds = %74, %78
  %82 = phi i8 [ %80, %78 ], [ 0, %74 ]
  %83 = getelementptr inbounds nuw i8, ptr %6, i64 26
  store i8 %82, ptr %83, align 2
  %84 = and i16 %60, 16
  %.not49 = icmp eq i16 %84, 0
  br i1 %.not49, label %92, label %85

85:                                               ; preds = %81
  %86 = getelementptr inbounds nuw i8, ptr %1, i64 123
  %87 = load i8, ptr %86, align 1
  %88 = zext i8 %87 to i16
  %89 = mul nuw nsw i16 %88, 127
  %90 = udiv i16 %89, 100
  %91 = trunc i16 %90 to i8
  br label %92

92:                                               ; preds = %81, %85
  %93 = phi i8 [ %91, %85 ], [ -1, %81 ]
  %94 = getelementptr inbounds nuw i8, ptr %6, i64 27
  store i8 %93, ptr %94, align 1
  br label %102

95:                                               ; preds = %33, %33
  %96 = load i8, ptr %8, align 8, !range !6, !noundef !7
  %97 = getelementptr inbounds nuw i8, ptr %6, i64 24
  store i8 %96, ptr %97, align 4
  br label %102

98:                                               ; preds = %33
  %99 = load i8, ptr %8, align 8
  %.not45 = icmp sgt i8 %99, -1
  %100 = getelementptr inbounds nuw i8, ptr %6, i64 24
  %101 = zext i1 %.not45 to i8
  store i8 %101, ptr %100, align 4
  br label %102

102:                                              ; preds = %98, %95, %92, %33
  %103 = call zeroext i1 @wtap_dump_file_write(ptr noundef %0, ptr noundef nonnull %6, i64 noundef 40, ptr noundef %3)
  br i1 %103, label %104, label %112

104:                                              ; preds = %102
  %105 = load i32, ptr %7, align 8
  %106 = zext i32 %105 to i64
  %107 = call zeroext i1 @wtap_dump_file_write(ptr noundef %0, ptr noundef %2, i64 noundef %106, ptr noundef %3)
  br i1 %107, label %108, label %112

108:                                              ; preds = %104
  %109 = getelementptr inbounds nuw i8, ptr %10, i64 8
  %110 = load i32, ptr %109, align 4
  %111 = add i32 %110, 1
  store i32 %111, ptr %109, align 4
  br label %112

112:                                              ; preds = %104, %102, %108, %29, %22, %18, %12
  %.0 = phi i1 [ false, %12 ], [ false, %18 ], [ false, %22 ], [ false, %29 ], [ true, %108 ], [ false, %102 ], [ false, %104 ]
  call void @llvm.lifetime.end.p0(i64 40, ptr nonnull %6) #8
  ret i1 %.0
}